; Function Attrs: nofree nosync nounwind memory(readwrite, inaccessiblemem: none) uwtable
define range(i32 0, 2) i32 @Cec_ManSVerify_rec(ptr noundef %0, i32 noundef %1) local_unnamed_addr #6 {
  %3 = getelementptr i8, ptr %0, i64 32
  %.val = load ptr, ptr %3, align 8, !tbaa !52
  %4 = sext i32 %1 to i64
  %5 = getelementptr inbounds %struct.Gia_Obj_t_, ptr %.val, i64 %4
  %6 = icmp eq i32 %1, 0
  br i1 %6, label %59, label %7

7:                                                ; preds = %2
  %8 = getelementptr i8, ptr %0, i64 176
  %.val27 = load i32, ptr %8, align 8, !tbaa !53
  %9 = getelementptr i8, ptr %0, i64 616
  %.val28 = load ptr, ptr %9, align 8, !tbaa !54
  %10 = getelementptr inbounds i32, ptr %.val28, i64 %4
  %11 = load i32, ptr %10, align 4, !tbaa !55
  %.not = icmp eq i32 %11, %.val27
  br i1 %.not, label %12, label %17

12:                                               ; preds = %7
  %13 = load i64, ptr %5, align 4
  %14 = lshr i64 %13, 62
  %15 = trunc nuw nsw i64 %14 to i32
  %16 = and i32 %15, 1
  br label %59

17:                                               ; preds = %7
  store i32 %.val27, ptr %10, align 4, !tbaa !55
  %.val31 = load i64, ptr %5, align 4
  %18 = and i64 %.val31, 2684354559
  %narrow.i.not = icmp eq i64 %18, 2684354559
  br i1 %narrow.i.not, label %19, label %23

19:                                               ; preds = %17
  %20 = lshr i64 %.val31, 62
  %21 = trunc nuw nsw i64 %20 to i32
  %22 = and i32 %21, 1
  br label %59

23:                                               ; preds = %17
  %24 = trunc i64 %.val31 to i32
  %25 = and i32 %24, 536870911
  %26 = sub nsw i32 %1, %25
  %27 = tail call i32 @Cec_ManSVerify_rec(ptr noundef nonnull %0, i32 noundef %26)
  %.val33 = load i64, ptr %5, align 4
  %28 = trunc i64 %.val33 to i32
  %29 = lshr i32 %28, 29
  %30 = and i32 %29, 1
  %31 = xor i32 %30, %27
  %32 = lshr i64 %.val33, 32
  %33 = trunc nuw i64 %32 to i32
  %34 = and i32 %33, 536870911
  %35 = sub nsw i32 %1, %34
  %36 = tail call i32 @Cec_ManSVerify_rec(ptr noundef nonnull %0, i32 noundef %35)
  %.val35 = load i64, ptr %5, align 4
  %37 = lshr i64 %.val35, 61
  %38 = trunc nuw nsw i64 %37 to i32
  %39 = and i32 %38, 1
  %40 = xor i32 %39, %36
  %41 = and i64 %.val35, 2147483648
  %.not.i.i = icmp ne i64 %41, 0
  %42 = and i64 %.val35, 536870911
  %43 = icmp eq i64 %42, 536870911
  %narrow.i.not.i = or i1 %.not.i.i, %43
  br i1 %narrow.i.not.i, label %Gia_ObjIsXor.exit.thread, label %Gia_ObjIsXor.exit

Gia_ObjIsXor.exit.thread:                         ; preds = %23
  %44 = and i32 %40, %31
  br label %53

Gia_ObjIsXor.exit:                                ; preds = %23
  %45 = trunc i64 %.val35 to i32
  %46 = and i32 %45, 536870911
  %47 = lshr i64 %.val35, 32
  %48 = trunc nuw i64 %47 to i32
  %49 = and i32 %48, 536870911
  %50 = icmp samesign uge i32 %46, %49
  %51 = xor i32 %40, %31
  %52 = and i32 %40, %31
  %cond.fr = freeze i1 %50
  %spec.select = select i1 %cond.fr, i32 %52, i32 %51
  br label %53

53:                                               ; preds = %Gia_ObjIsXor.exit, %Gia_ObjIsXor.exit.thread
  %54 = phi i32 [ %44, %Gia_ObjIsXor.exit.thread ], [ %spec.select, %Gia_ObjIsXor.exit ]
  %55 = zext nneg i32 %54 to i64
  %56 = shl nuw nsw i64 %55, 62
  %57 = and i64 %.val35, -4611686018427387905
  %58 = or disjoint i64 %56, %57
  store i64 %58, ptr %5, align 4
  br label %59

59:                                               ; preds = %2, %53, %19, %12
  %.0 = phi i32 [ %16, %12 ], [ %22, %19 ], [ %54, %53 ], [ 0, %2 ]
  ret i32 %.0
}